; Function Attrs: mustprogress uwtable
define hidden noundef nonnull align 8 dereferenceable(40) ptr @_ZN5zxing6qrcode20ErrorCorrectionLevel7forBitsEiRNS_12ErrorHandlerE(i32 noundef %0, ptr noundef nonnull align 8 dereferenceable(48) %1) local_unnamed_addr #0 align 2 personality ptr @__gxx_personality_v0 {
  %3 = alloca %"class.zxing::ReaderErrorHandler", align 8
  %4 = icmp sgt i32 %0, -1
  %5 = load i32, ptr @_ZN5zxing6qrcode20ErrorCorrectionLevel8N_LEVELSE, align 4
  %.not = icmp slt i32 %0, %5
  %or.cond = select i1 %4, i1 %.not, i1 false
  br i1 %or.cond, label %26, label %6

6:                                                ; preds = %2
  call void @llvm.lifetime.start.p0(i64 48, ptr nonnull %3) #15
  call void @_ZN5zxing12ErrorHandlerC2EPKc(ptr noundef nonnull align 8 dereferenceable(48) %3, ptr noundef nonnull @.str)
  store ptr getelementptr inbounds nuw inrange(-16, 64) (i8, ptr @_ZTVN5zxing18ReaderErrorHandlerE, i64 16), ptr %3, align 8, !tbaa !19
  %7 = getelementptr inbounds nuw i8, ptr %3, i64 8
  store i32 3, ptr %7, align 8, !tbaa !21
  %8 = invoke noundef nonnull align 8 dereferenceable(48) ptr @_ZN5zxing12ErrorHandleraSERKS0_(ptr noundef nonnull align 8 dereferenceable(48) %1, ptr noundef nonnull align 8 dereferenceable(48) %3)
          to label %9 unwind label %17

9:                                                ; preds = %6
  store ptr getelementptr inbounds nuw inrange(-16, 64) (i8, ptr @_ZTVN5zxing12ErrorHandlerE, i64 16), ptr %3, align 8, !tbaa !19
  %10 = getelementptr inbounds nuw i8, ptr %3, i64 16
  %11 = load ptr, ptr %10, align 8, !tbaa !16
  %12 = getelementptr inbounds nuw i8, ptr %3, i64 32
  %13 = icmp eq ptr %11, %12
  br i1 %13, label %_ZNKSt7__cxx1112basic_stringIcSt11char_traitsIcESaIcEE11_M_is_localEv.exit.thread.i.i.i, label %_ZNKSt7__cxx1112basic_stringIcSt11char_traitsIcESaIcEE11_M_is_localEv.exit.i.i.i

_ZNKSt7__cxx1112basic_stringIcSt11char_traitsIcESaIcEE11_M_is_localEv.exit.thread.i.i.i: ; preds = %9
  %14 = getelementptr inbounds nuw i8, ptr %3, i64 24
  %15 = load i64, ptr %14, align 8, !tbaa !18
  %16 = icmp ult i64 %15, 16
  call void @llvm.assume(i1 %16)
  br label %_ZN5zxing12ErrorHandlerD2Ev.exit

_ZNKSt7__cxx1112basic_stringIcSt11char_traitsIcESaIcEE11_M_is_localEv.exit.i.i.i: ; preds = %9
  call void @_ZdlPv(ptr noundef %11) #16
  br label %_ZN5zxing12ErrorHandlerD2Ev.exit

_ZN5zxing12ErrorHandlerD2Ev.exit:                 ; preds = %_ZNKSt7__cxx1112basic_stringIcSt11char_traitsIcESaIcEE11_M_is_localEv.exit.thread.i.i.i, %_ZNKSt7__cxx1112basic_stringIcSt11char_traitsIcESaIcEE11_M_is_localEv.exit.i.i.i
  call void @llvm.lifetime.end.p0(i64 48, ptr nonnull %3) #15
  br label %29

17:                                               ; preds = %6
  %18 = landingpad { ptr, i32 }
          cleanup
  store ptr getelementptr inbounds nuw inrange(-16, 64) (i8, ptr @_ZTVN5zxing12ErrorHandlerE, i64 16), ptr %3, align 8, !tbaa !19
  %19 = getelementptr inbounds nuw i8, ptr %3, i64 16
  %20 = load ptr, ptr %19, align 8, !tbaa !16
  %21 = getelementptr inbounds nuw i8, ptr %3, i64 32
  %22 = icmp eq ptr %20, %21
  br i1 %22, label %_ZNKSt7__cxx1112basic_stringIcSt11char_traitsIcESaIcEE11_M_is_localEv.exit.thread.i.i.i8, label %_ZNKSt7__cxx1112basic_stringIcSt11char_traitsIcESaIcEE11_M_is_localEv.exit.i.i.i7

_ZNKSt7__cxx1112basic_stringIcSt11char_traitsIcESaIcEE11_M_is_localEv.exit.thread.i.i.i8: ; preds = %17
  %23 = getelementptr inbounds nuw i8, ptr %3, i64 24
  %24 = load i64, ptr %23, align 8, !tbaa !18
  %25 = icmp ult i64 %24, 16
  call void @llvm.assume(i1 %25)
  br label %_ZN5zxing12ErrorHandlerD2Ev.exit9

_ZNKSt7__cxx1112basic_stringIcSt11char_traitsIcESaIcEE11_M_is_localEv.exit.i.i.i7: ; preds = %17
  call void @_ZdlPv(ptr noundef %20) #16
  br label %_ZN5zxing12ErrorHandlerD2Ev.exit9

_ZN5zxing12ErrorHandlerD2Ev.exit9:                ; preds = %_ZNKSt7__cxx1112basic_stringIcSt11char_traitsIcESaIcEE11_M_is_localEv.exit.thread.i.i.i8, %_ZNKSt7__cxx1112basic_stringIcSt11char_traitsIcESaIcEE11_M_is_localEv.exit.i.i.i7
  call void @llvm.lifetime.end.p0(i64 48, ptr nonnull %3) #15
  resume { ptr, i32 } %18

26:                                               ; preds = %2
  %27 = zext nneg i32 %0 to i64
  %28 = getelementptr inbounds nuw [0 x ptr], ptr @_ZN5zxing6qrcode20ErrorCorrectionLevel8FOR_BITSE, i64 0, i64 %27
  br label %29

29:                                               ; preds = %26, %_ZN5zxing12ErrorHandlerD2Ev.exit
  %.0.in = phi ptr [ @_ZN5zxing6qrcode20ErrorCorrectionLevel8FOR_BITSE, %_ZN5zxing12ErrorHandlerD2Ev.exit ], [ %28, %26 ]
  %.0 = load ptr, ptr %.0.in, align 8, !tbaa !23
  ret ptr %.0
}